target datalayout = "e-m:e-p270:32:32-p271:32:32-p272:64:64-i64:64-i128:128-f80:128-n8:16:32:64-S128"
target triple = "x86_64-pc-linux-gnu"

%union.pthread_mutex_t = type { %struct.__pthread_mutex_s }
%struct.__pthread_mutex_s = type { i32, i32, i32, i32, i32, i16, i16, %struct.__pthread_internal_list }
%struct.__pthread_internal_list = type { ptr, ptr }
%struct.eio_obj = type { i32, ptr, ptr, i8 }
%struct.sockaddr_un = type { i16, [108 x i8] }
%union.__SOCKADDR_ARG = type { ptr }
%union.pthread_attr_t = type { i64, [48 x i8] }
%struct.request_params = type { i32, ptr }

@.str = private unnamed_addr constant [22 x i8] c"pthread_attr_init: %m\00", align 1
@.str.1 = private unnamed_addr constant [26 x i8] c"pthread_attr_setscope: %m\00", align 1
@.str.2 = private unnamed_addr constant [30 x i8] c"pthread_attr_setstacksize: %m\00", align 1
@.str.3 = private unnamed_addr constant [28 x i8] c"%s: pthread_create error %m\00", align 1
@.str.4 = private unnamed_addr constant [55 x i8] c"pthread_attr_destroy failed, possible memory leak!: %m\00", align 1
@message_lock = internal global %union.pthread_mutex_t zeroinitializer, align 8
@.str.22 = private unnamed_addr constant [29 x i8] c"%s: pthread_mutex_lock(): %m\00", align 1
@message_connections = internal global i32 0, align 4
@.str.23 = private unnamed_addr constant [31 x i8] c"%s: pthread_mutex_unlock(): %m\00", align 1
@.str.24 = private unnamed_addr constant [26 x i8] c"Called _msg_socket_accept\00", align 1
@.str.25 = private unnamed_addr constant [31 x i8] c"Error on msg accept socket: %m\00", align 1
@__func__._msg_socket_accept = private unnamed_addr constant [19 x i8] c"_msg_socket_accept\00", align 1
@.str.26 = private unnamed_addr constant [6 x i8] c"req.c\00", align 1
@.str.27 = private unnamed_addr constant [35 x i8] c"%s: pthread_attr_setdetachstate %m\00", align 1
@.str.28 = private unnamed_addr constant [27 x i8] c"Leaving _msg_socket_accept\00", align 1

; Function Attrs: nounwind uwtable
define internal i32 @_msg_socket_accept(ptr noundef %0, ptr noundef %1) #0 {
  %3 = alloca i32, align 4
  %4 = alloca ptr, align 8
  %5 = alloca ptr, align 8
  %6 = alloca ptr, align 8
  %7 = alloca i32, align 4
  %8 = alloca %struct.sockaddr_un, align 2
  %9 = alloca i32, align 4
  %10 = alloca ptr, align 8
  %11 = alloca %union.__SOCKADDR_ARG, align 8
  %12 = alloca i32, align 4
  %13 = alloca i32, align 4
  %14 = alloca i32, align 4
  %15 = alloca i64, align 8
  %16 = alloca %union.pthread_attr_t, align 8
  %17 = alloca i32, align 4
  %18 = alloca i32, align 4
  %19 = alloca i32, align 4
  store ptr %0, ptr %4, align 8
  store ptr %1, ptr %5, align 8
  call void @llvm.lifetime.start.p0(i64 8, ptr %6) #10
  %20 = load ptr, ptr %4, align 8
  %21 = getelementptr inbounds nuw %struct.eio_obj, ptr %20, i32 0, i32 1
  %22 = load ptr, ptr %21, align 8
  store ptr %22, ptr %6, align 8
  call void @llvm.lifetime.start.p0(i64 4, ptr %7) #10
  call void @llvm.lifetime.start.p0(i64 110, ptr %8) #10
  call void @llvm.lifetime.start.p0(i64 4, ptr %9) #10
  store i32 110, ptr %9, align 4
  call void @llvm.lifetime.start.p0(i64 8, ptr %10) #10
  store ptr null, ptr %10, align 8
  br label %23

23:                                               ; preds = %2
  br label %24

24:                                               ; preds = %23
  %25 = call i32 @get_log_level()
  %26 = icmp sge i32 %25, 7
  br i1 %26, label %27, label %28

27:                                               ; preds = %24
  call void (i32, ptr, ...) @log_var(i32 noundef 7, ptr noundef @.str.24)
  br label %28

28:                                               ; preds = %27, %24
  br label %29

29:                                               ; preds = %28
  br label %30

30:                                               ; preds = %29
  br label %31

31:                                               ; preds = %30
  br label %32

32:                                               ; preds = %31
  br label %33

33:                                               ; preds = %45, %32
  %34 = load ptr, ptr %4, align 8
  %35 = getelementptr inbounds nuw %struct.eio_obj, ptr %34, i32 0, i32 0
  %36 = load i32, ptr %35, align 8
  store ptr %8, ptr %11, align 8
  %37 = getelementptr inbounds nuw %union.__SOCKADDR_ARG, ptr %11, i32 0, i32 0
  %38 = load ptr, ptr %37, align 8
  %39 = call i32 @accept4(i32 noundef %36, ptr %38, ptr noundef %9, i32 noundef 524288)
  store i32 %39, ptr %7, align 4
  %40 = icmp slt i32 %39, 0
  br i1 %40, label %41, label %80

41:                                               ; preds = %33
  %42 = call ptr @__errno_location() #11
  %43 = load i32, ptr %42, align 4
  %44 = icmp eq i32 %43, 4
  br i1 %44, label %45, label %46

45:                                               ; preds = %41
  br label %33, !llvm.loop !10

46:                                               ; preds = %41
  %47 = call ptr @__errno_location() #11
  %48 = load i32, ptr %47, align 4
  %49 = icmp eq i32 %48, 11
  br i1 %49, label %58, label %50

50:                                               ; preds = %46
  %51 = call ptr @__errno_location() #11
  %52 = load i32, ptr %51, align 4
  %53 = icmp eq i32 %52, 103
  br i1 %53, label %58, label %54

54:                                               ; preds = %50
  %55 = call ptr @__errno_location() #11
  %56 = load i32, ptr %55, align 4
  %57 = icmp eq i32 %56, 11
  br i1 %57, label %58, label %59

58:                                               ; preds = %54, %50, %46
  store i32 0, ptr %3, align 4
  store i32 1, ptr %12, align 4
  br label %176

59:                                               ; preds = %54
  %60 = call i32 (ptr, ...) @error(ptr noundef @.str.25)
  %61 = call ptr @__errno_location() #11
  %62 = load i32, ptr %61, align 4
  %63 = icmp eq i32 %62, 24
  br i1 %63, label %76, label %64

64:                                               ; preds = %59
  %65 = call ptr @__errno_location() #11
  %66 = load i32, ptr %65, align 4
  %67 = icmp eq i32 %66, 23
  br i1 %67, label %76, label %68

68:                                               ; preds = %64
  %69 = call ptr @__errno_location() #11
  %70 = load i32, ptr %69, align 4
  %71 = icmp eq i32 %70, 105
  br i1 %71, label %76, label %72

72:                                               ; preds = %68
  %73 = call ptr @__errno_location() #11
  %74 = load i32, ptr %73, align 4
  %75 = icmp eq i32 %74, 12
  br i1 %75, label %76, label %77

76:                                               ; preds = %72, %68, %64, %59
  store i32 0, ptr %3, align 4
  store i32 1, ptr %12, align 4
  br label %176

77:                                               ; preds = %72
  %78 = load ptr, ptr %4, align 8
  %79 = getelementptr inbounds nuw %struct.eio_obj, ptr %78, i32 0, i32 3
  store i8 1, ptr %79, align 8
  store i32 0, ptr %3, align 4
  store i32 1, ptr %12, align 4
  br label %176

80:                                               ; preds = %33
  br label %81

81:                                               ; preds = %80
  call void @llvm.lifetime.start.p0(i64 4, ptr %13) #10
  %82 = call i32 @pthread_mutex_lock(ptr noundef @message_lock) #10
  store i32 %82, ptr %13, align 4
  %83 = load i32, ptr %13, align 4
  %84 = icmp ne i32 %83, 0
  br i1 %84, label %85, label %88

85:                                               ; preds = %81
  %86 = load i32, ptr %13, align 4
  %87 = call ptr @__errno_location() #11
  store i32 %86, ptr %87, align 4
  call void (ptr, ...) @fatal_abort(ptr noundef @.str.22, ptr noundef @__func__._msg_socket_accept) #12
  unreachable

88:                                               ; preds = %81
  call void @llvm.lifetime.end.p0(i64 4, ptr %13) #10
  br label %89

89:                                               ; preds = %88
  br label %90

90:                                               ; preds = %89
  %91 = load i32, ptr @message_connections, align 4
  %92 = add nsw i32 %91, 1
  store i32 %92, ptr @message_connections, align 4
  br label %93

93:                                               ; preds = %90
  call void @llvm.lifetime.start.p0(i64 4, ptr %14) #10
  %94 = call i32 @pthread_mutex_unlock(ptr noundef @message_lock) #10
  store i32 %94, ptr %14, align 4
  %95 = load i32, ptr %14, align 4
  %96 = icmp ne i32 %95, 0
  br i1 %96, label %97, label %100

97:                                               ; preds = %93
  %98 = load i32, ptr %14, align 4
  %99 = call ptr @__errno_location() #11
  store i32 %98, ptr %99, align 4
  call void (ptr, ...) @fatal_abort(ptr noundef @.str.23, ptr noundef @__func__._msg_socket_accept) #12
  unreachable

100:                                              ; preds = %93
  call void @llvm.lifetime.end.p0(i64 4, ptr %14) #10
  br label %101

101:                                              ; preds = %100
  br label %102

102:                                              ; preds = %101
  %103 = load i32, ptr %7, align 4
  call void @fd_set_blocking(i32 noundef %103)
  %104 = call ptr @slurm_xcalloc(i64 noundef 1, i64 noundef 16, i1 noundef zeroext true, i1 noundef zeroext false, ptr noundef @.str.26, i32 noundef 413, ptr noundef @__func__._msg_socket_accept)
  store ptr %104, ptr %10, align 8
  %105 = load i32, ptr %7, align 4
  %106 = load ptr, ptr %10, align 8
  %107 = getelementptr inbounds nuw %struct.request_params, ptr %106, i32 0, i32 0
  store i32 %105, ptr %107, align 8
  %108 = load ptr, ptr %6, align 8
  %109 = load ptr, ptr %10, align 8
  %110 = getelementptr inbounds nuw %struct.request_params, ptr %109, i32 0, i32 1
  store ptr %108, ptr %110, align 8
  br label %111

111:                                              ; preds = %102
  call void @llvm.lifetime.start.p0(i64 8, ptr %15) #10
  call void @llvm.lifetime.start.p0(i64 56, ptr %16) #10
  call void @llvm.lifetime.start.p0(i64 4, ptr %17) #10
  br label %112

112:                                              ; preds = %111
  call void @llvm.lifetime.start.p0(i64 4, ptr %18) #10
  %113 = call i32 @pthread_attr_init(ptr noundef %16) #10
  store i32 %113, ptr %18, align 4
  %114 = load i32, ptr %18, align 4
  %115 = icmp ne i32 %114, 0
  br i1 %115, label %116, label %119

116:                                              ; preds = %112
  %117 = load i32, ptr %18, align 4
  %118 = call ptr @__errno_location() #11
  store i32 %117, ptr %118, align 4
  call void (ptr, ...) @fatal(ptr noundef @.str) #12
  unreachable

119:                                              ; preds = %112
  %120 = call i32 @pthread_attr_setscope(ptr noundef %16, i32 noundef 0) #10
  store i32 %120, ptr %18, align 4
  %121 = load i32, ptr %18, align 4
  %122 = icmp ne i32 %121, 0
  br i1 %122, label %123, label %127

123:                                              ; preds = %119
  %124 = load i32, ptr %18, align 4
  %125 = call ptr @__errno_location() #11
  store i32 %124, ptr %125, align 4
  %126 = call i32 (ptr, ...) @error(ptr noundef @.str.1)
  br label %127

127:                                              ; preds = %123, %119
  %128 = call i32 @pthread_attr_setstacksize(ptr noundef %16, i64 noundef 1048576) #10
  store i32 %128, ptr %18, align 4
  %129 = load i32, ptr %18, align 4
  %130 = icmp ne i32 %129, 0
  br i1 %130, label %131, label %135

131:                                              ; preds = %127
  %132 = load i32, ptr %18, align 4
  %133 = call ptr @__errno_location() #11
  store i32 %132, ptr %133, align 4
  %134 = call i32 (ptr, ...) @error(ptr noundef @.str.2)
  br label %135

135:                                              ; preds = %131, %127
  call void @llvm.lifetime.end.p0(i64 4, ptr %18) #10
  br label %136

136:                                              ; preds = %135
  br label %137

137:                                              ; preds = %136
  %138 = call i32 @pthread_attr_setdetachstate(ptr noundef %16, i32 noundef 1) #10
  store i32 %138, ptr %17, align 4
  %139 = load i32, ptr %17, align 4
  %140 = icmp ne i32 %139, 0
  br i1 %140, label %141, label %144

141:                                              ; preds = %137
  %142 = load i32, ptr %17, align 4
  %143 = call ptr @__errno_location() #11
  store i32 %142, ptr %143, align 4
  call void (ptr, ...) @fatal(ptr noundef @.str.27, ptr noundef @__func__._msg_socket_accept) #12
  unreachable

144:                                              ; preds = %137
  %145 = load ptr, ptr %10, align 8
  %146 = call i32 @pthread_create(ptr noundef %15, ptr noundef %16, ptr noundef @_handle_accept, ptr noundef %145) #10
  store i32 %146, ptr %17, align 4
  %147 = load i32, ptr %17, align 4
  %148 = icmp ne i32 %147, 0
  br i1 %148, label %149, label %152

149:                                              ; preds = %144
  %150 = load i32, ptr %17, align 4
  %151 = call ptr @__errno_location() #11
  store i32 %150, ptr %151, align 4
  call void (ptr, ...) @fatal(ptr noundef @.str.3, ptr noundef @__func__._msg_socket_accept) #12
  unreachable

152:                                              ; preds = %144
  br label %153

153:                                              ; preds = %152
  call void @llvm.lifetime.start.p0(i64 4, ptr %19) #10
  %154 = call i32 @pthread_attr_destroy(ptr noundef %16) #10
  store i32 %154, ptr %19, align 4
  %155 = load i32, ptr %19, align 4
  %156 = icmp ne i32 %155, 0
  br i1 %156, label %157, label %161

157:                                              ; preds = %153
  %158 = load i32, ptr %19, align 4
  %159 = call ptr @__errno_location() #11
  store i32 %158, ptr %159, align 4
  %160 = call i32 (ptr, ...) @error(ptr noundef @.str.4)
  br label %161

161:                                              ; preds = %157, %153
  call void @llvm.lifetime.end.p0(i64 4, ptr %19) #10
  br label %162

162:                                              ; preds = %161
  br label %163

163:                                              ; preds = %162
  call void @llvm.lifetime.end.p0(i64 4, ptr %17) #10
  call void @llvm.lifetime.end.p0(i64 56, ptr %16) #10
  call void @llvm.lifetime.end.p0(i64 8, ptr %15) #10
  br label %164

164:                                              ; preds = %163
  br label %165

165:                                              ; preds = %164
  br label %166

166:                                              ; preds = %165
  br label %167

167:                                              ; preds = %166
  %168 = call i32 @get_log_level()
  %169 = icmp sge i32 %168, 7
  br i1 %169, label %170, label %171

170:                                              ; preds = %167
  call void (i32, ptr, ...) @log_var(i32 noundef 7, ptr noundef @.str.28)
  br label %171

171:                                              ; preds = %170, %167
  br label %172

172:                                              ; preds = %171
  br label %173

173:                                              ; preds = %172
  br label %174

174:                                              ; preds = %173
  br label %175

175:                                              ; preds = %174
  store i32 0, ptr %3, align 4
  store i32 1, ptr %12, align 4
  br label %176

176:                                              ; preds = %175, %77, %76, %58
  call void @llvm.lifetime.end.p0(i64 8, ptr %10) #10
  call void @llvm.lifetime.end.p0(i64 4, ptr %9) #10
  call void @llvm.lifetime.end.p0(i64 110, ptr %8) #10
  call void @llvm.lifetime.end.p0(i64 4, ptr %7) #10
  call void @llvm.lifetime.end.p0(i64 8, ptr %6) #10
  %177 = load i32, ptr %3, align 4
  ret i32 %177
}