; Function Attrs: nounwind uwtable
define internal noundef i32 @_msg_socket_accept(ptr noundef captures(none) %0, ptr readnone captures(none) %1) #0 {
  %3 = alloca %struct.sockaddr_un, align 2
  %4 = alloca i32, align 4
  %5 = alloca i64, align 8
  %6 = alloca %union.pthread_attr_t, align 8
  %7 = getelementptr inbounds nuw i8, ptr %0, i64 8
  %8 = load ptr, ptr %7, align 8
  call void @llvm.lifetime.start.p0(i64 110, ptr nonnull %3) #13
  call void @llvm.lifetime.start.p0(i64 4, ptr nonnull %4) #13
  store i32 110, ptr %4, align 4
  %9 = tail call i32 @get_log_level() #13
  %10 = icmp sgt i32 %9, 6
  br i1 %10, label %11, label %.preheader

11:                                               ; preds = %2
  tail call void (i32, ptr, ...) @log_var(i32 noundef 7, ptr noundef nonnull @.str.24) #13
  br label %.preheader

.preheader:                                       ; preds = %11, %2
  br label %12

12:                                               ; preds = %.preheader, %16
  %13 = load i32, ptr %0, align 8
  %14 = call i32 @accept4(i32 noundef %13, ptr nonnull %3, ptr noundef nonnull %4, i32 noundef 524288) #13
  %15 = icmp slt i32 %14, 0
  br i1 %15, label %16, label %24

16:                                               ; preds = %12
  %17 = tail call ptr @__errno_location() #14
  %18 = load i32, ptr %17, align 4
  switch i32 %18, label %19 [
    i32 4, label %12
    i32 11, label %.loopexit
    i32 103, label %.loopexit
  ]

19:                                               ; preds = %16
  %20 = call i32 (ptr, ...) @error(ptr noundef nonnull @.str.25) #13
  %21 = load i32, ptr %17, align 4
  switch i32 %21, label %22 [
    i32 24, label %.loopexit
    i32 23, label %.loopexit
    i32 105, label %.loopexit
    i32 12, label %.loopexit
  ]

22:                                               ; preds = %19
  %23 = getelementptr inbounds nuw i8, ptr %0, i64 24
  store i8 1, ptr %23, align 8
  br label %.loopexit

24:                                               ; preds = %12
  %25 = call i32 @pthread_mutex_lock(ptr noundef nonnull @message_lock) #13
  %.not = icmp eq i32 %25, 0
  br i1 %.not, label %28, label %26

26:                                               ; preds = %24
  %27 = tail call ptr @__errno_location() #14
  store i32 %25, ptr %27, align 4
  call void (ptr, ...) @fatal_abort(ptr noundef nonnull @.str.22, ptr noundef nonnull @__func__._msg_socket_accept) #15
  unreachable

28:                                               ; preds = %24
  %29 = load i32, ptr @message_connections, align 4
  %30 = add nsw i32 %29, 1
  store i32 %30, ptr @message_connections, align 4
  %31 = call i32 @pthread_mutex_unlock(ptr noundef nonnull @message_lock) #13
  %.not35 = icmp eq i32 %31, 0
  br i1 %.not35, label %34, label %32

32:                                               ; preds = %28
  %33 = tail call ptr @__errno_location() #14
  store i32 %31, ptr %33, align 4
  call void (ptr, ...) @fatal_abort(ptr noundef nonnull @.str.23, ptr noundef nonnull @__func__._msg_socket_accept) #15
  unreachable

34:                                               ; preds = %28
  call void @fd_set_blocking(i32 noundef %14) #13
  %35 = call ptr @slurm_xcalloc(i64 noundef 1, i64 noundef 16, i1 noundef zeroext true, i1 noundef zeroext false, ptr noundef nonnull @.str.26, i32 noundef 413, ptr noundef nonnull @__func__._msg_socket_accept) #13
  store i32 %14, ptr %35, align 8
  %36 = getelementptr inbounds nuw i8, ptr %35, i64 8
  store ptr %8, ptr %36, align 8
  call void @llvm.lifetime.start.p0(i64 8, ptr nonnull %5) #13
  call void @llvm.lifetime.start.p0(i64 56, ptr nonnull %6) #13
  %37 = call i32 @pthread_attr_init(ptr noundef nonnull %6) #13
  %.not36 = icmp eq i32 %37, 0
  br i1 %.not36, label %40, label %38

38:                                               ; preds = %34
  %39 = tail call ptr @__errno_location() #14
  store i32 %37, ptr %39, align 4
  call void (ptr, ...) @fatal(ptr noundef nonnull @.str) #15
  unreachable

40:                                               ; preds = %34
  %41 = call i32 @pthread_attr_setscope(ptr noundef nonnull %6, i32 noundef 0) #13
  %.not37 = icmp eq i32 %41, 0
  br i1 %.not37, label %45, label %42

42:                                               ; preds = %40
  %43 = tail call ptr @__errno_location() #14
  store i32 %41, ptr %43, align 4
  %44 = call i32 (ptr, ...) @error(ptr noundef nonnull @.str.1) #13
  br label %45

45:                                               ; preds = %42, %40
  %46 = call i32 @pthread_attr_setstacksize(ptr noundef nonnull %6, i64 noundef 1048576) #13
  %.not38 = icmp eq i32 %46, 0
  br i1 %.not38, label %50, label %47

47:                                               ; preds = %45
  %48 = tail call ptr @__errno_location() #14
  store i32 %46, ptr %48, align 4
  %49 = call i32 (ptr, ...) @error(ptr noundef nonnull @.str.2) #13
  br label %50

50:                                               ; preds = %47, %45
  %51 = call i32 @pthread_attr_setdetachstate(ptr noundef nonnull %6, i32 noundef 1) #13
  %.not39 = icmp eq i32 %51, 0
  br i1 %.not39, label %54, label %52

52:                                               ; preds = %50
  %53 = tail call ptr @__errno_location() #14
  store i32 %51, ptr %53, align 4
  call void (ptr, ...) @fatal(ptr noundef nonnull @.str.27, ptr noundef nonnull @__func__._msg_socket_accept) #15
  unreachable

54:                                               ; preds = %50
  %55 = call i32 @pthread_create(ptr noundef nonnull %5, ptr noundef nonnull %6, ptr noundef nonnull @_handle_accept, ptr noundef nonnull %35) #13
  %.not40 = icmp eq i32 %55, 0
  br i1 %.not40, label %58, label %56

56:                                               ; preds = %54
  %57 = tail call ptr @__errno_location() #14
  store i32 %55, ptr %57, align 4
  call void (ptr, ...) @fatal(ptr noundef nonnull @.str.3, ptr noundef nonnull @__func__._msg_socket_accept) #15
  unreachable

58:                                               ; preds = %54
  %59 = call i32 @pthread_attr_destroy(ptr noundef nonnull %6) #13
  %.not41 = icmp eq i32 %59, 0
  br i1 %.not41, label %63, label %60

60:                                               ; preds = %58
  %61 = tail call ptr @__errno_location() #14
  store i32 %59, ptr %61, align 4
  %62 = call i32 (ptr, ...) @error(ptr noundef nonnull @.str.4) #13
  br label %63

63:                                               ; preds = %60, %58
  call void @llvm.lifetime.end.p0(i64 56, ptr nonnull %6) #13
  call void @llvm.lifetime.end.p0(i64 8, ptr nonnull %5) #13
  %64 = call i32 @get_log_level() #13
  %65 = icmp sgt i32 %64, 6
  br i1 %65, label %66, label %.loopexit

66:                                               ; preds = %63
  call void (i32, ptr, ...) @log_var(i32 noundef 7, ptr noundef nonnull @.str.28) #13
  br label %.loopexit

.loopexit:                                        ; preds = %16, %16, %63, %66, %19, %19, %19, %19, %22
  call void @llvm.lifetime.end.p0(i64 4, ptr nonnull %4) #13
  call void @llvm.lifetime.end.p0(i64 110, ptr nonnull %3) #13
  ret i32 0
}